; Function Attrs: mustprogress uwtable
define void @_ZN2mu10ParserBase4InitEv(ptr noundef nonnull align 8 dereferenceable(596) %0) local_unnamed_addr #7 align 2 {
  %2 = load ptr, ptr %0, align 8
  %3 = getelementptr inbounds i8, ptr %2, i64 16
  %4 = load ptr, ptr %3, align 8
  tail call void %4(ptr noundef nonnull align 8 dereferenceable(596) %0)
  %5 = load ptr, ptr %0, align 8
  %6 = getelementptr inbounds i8, ptr %5, i64 24
  %7 = load ptr, ptr %6, align 8
  tail call void %7(ptr noundef nonnull align 8 dereferenceable(596) %0)
  %8 = load ptr, ptr %0, align 8
  %9 = getelementptr inbounds i8, ptr %8, i64 32
  %10 = load ptr, ptr %9, align 8
  tail call void %10(ptr noundef nonnull align 8 dereferenceable(596) %0)
  %11 = load ptr, ptr %0, align 8
  %12 = getelementptr inbounds i8, ptr %11, i64 40
  %13 = load ptr, ptr %12, align 8
  tail call void %13(ptr noundef nonnull align 8 dereferenceable(596) %0)
  ret void
}